((lp0
I0
aI2
aI5
aI10
aI11
aI14
aI15
aI17
aI18
aI20
aI22
aI23
aI27
aI29
aI31
aI33
aI34
aI38
aI39
aI40
aI41
a(lp1
I0
aI2
aI3
aI4
aI5
aI7
aI16
aI20
aI21
aI23
aI25
aI28
aI29
aI30
aI31
aI32
aI37
aI39
aI43
aI44
aI45
a(lp2
I0
aI5
aI7
aI10
aI11
aI14
aI15
aI21
aI22
aI23
aI24
aI27
aI28
aI30
aI34
aI36
aI38
aI39
aI40
aI41
aI45
aI10
I20
tp3
.